cnumpy.core.multiarray
_reconstruct
p0
(cnumpy
ndarray
p1
(I0
tp2
S'b'
p3
tp4
Rp5
(I1
(I5
tp6
cnumpy
dtype
p7
(S'S14'
p8
I0
I1
tp9
Rp10
(I3
S'|'
p11
NNNI14
I1
I0
tp12
bI00
S'ben_afflek\x00\x00\x00\x00elton_john\x00\x00\x00\x00jerry_seinfeldmadonna\x00\x00\x00\x00\x00\x00\x00mindy_kaling\x00\x00'
p13
tp14
b.